; Function Attrs: mustprogress nounwind uwtable
define dso_local noundef zeroext i1 @_ZNK5clang4ento15CallDescription16matchesAsWrittenERKNS_8CallExprE(ptr noundef nonnull align 8 dereferenceable(60) %0, ptr nocapture noundef nonnull readonly align 8 dereferenceable(24) %1) local_unnamed_addr #0 align 2 {
  %3 = load i32, ptr %1, align 8
  %4 = lshr i32 %3, 24
  %5 = zext nneg i32 %4 to i64
  %6 = getelementptr inbounds i8, ptr %1, i64 %5
  %7 = load ptr, ptr %6, align 8
  %8 = tail call noundef ptr @_ZN5clang4Expr25getReferencedDeclOfCalleeEv(ptr noundef nonnull align 8 dereferenceable(16) %7) #13
  %.not.i.i = icmp eq ptr %8, null
  br i1 %.not.i.i, label %_ZN4llvm16dyn_cast_or_nullIN5clang12FunctionDeclEKNS1_4DeclEEEDaPT0_.exit.thread, label %9

9:                                                ; preds = %2
  %10 = getelementptr inbounds nuw i8, ptr %8, i64 28
  %11 = load i32, ptr %10, align 4
  %12 = and i32 %11, 127
  %13 = add nsw i32 %12, -31
  %14 = icmp ult i32 %13, 6
  br i1 %14, label %_ZN4llvm16dyn_cast_or_nullIN5clang12FunctionDeclEKNS1_4DeclEEEDaPT0_.exit, label %_ZN4llvm16dyn_cast_or_nullIN5clang12FunctionDeclEKNS1_4DeclEEEDaPT0_.exit.thread

_ZN4llvm16dyn_cast_or_nullIN5clang12FunctionDeclEKNS1_4DeclEEEDaPT0_.exit: ; preds = %9
  %15 = getelementptr inbounds nuw i8, ptr %1, i64 16
  %16 = load i32, ptr %15, align 8
  %17 = zext i32 %16 to i64
  %18 = tail call noundef i32 @_ZNK5clang12FunctionDecl12getNumParamsEv(ptr noundef nonnull align 8 dereferenceable(168) %8) #13
  %19 = zext i32 %18 to i64
  %20 = tail call noundef zeroext i1 @_ZNK5clang4ento15CallDescription11matchesImplEPKNS_12FunctionDeclEmm(ptr noundef nonnull align 8 dereferenceable(60) %0, ptr noundef nonnull %8, i64 noundef %17, i64 noundef %19)
  br label %_ZN4llvm16dyn_cast_or_nullIN5clang12FunctionDeclEKNS1_4DeclEEEDaPT0_.exit.thread

_ZN4llvm16dyn_cast_or_nullIN5clang12FunctionDeclEKNS1_4DeclEEEDaPT0_.exit.thread: ; preds = %2, %9, %_ZN4llvm16dyn_cast_or_nullIN5clang12FunctionDeclEKNS1_4DeclEEEDaPT0_.exit
  %.0 = phi i1 [ %20, %_ZN4llvm16dyn_cast_or_nullIN5clang12FunctionDeclEKNS1_4DeclEEEDaPT0_.exit ], [ false, %9 ], [ false, %2 ]
  ret i1 %.0
}